Certificate:
    Data:
        Version: 3 (0x2)
        Serial Number: 20 (0x14)
    Signature Algorithm: sha256WithRSAEncryption
        Issuer: C=CN, ST=GuangDong, L=Guangzhou, O=DevOps, CN=zj.catest.com
        Validity
            Not Before: Jan 16 10:26:58 2021 GMT
            Not After : Jan 16 10:26:58 2022 GMT
        Subject: 
        Subject Public Key Info:
            Public Key Algorithm: rsaEncryption
                Public-Key: (2048 bit)
                Modulus:
                    00:c9:ad:52:79:ac:00:9b:0d:0b:2c:5f:18:69:8c:
                    9a:6c:45:3b:c9:75:9b:14:e8:d8:92:1d:6d:d9:07:
                    bc:86:ca:10:6e:20:09:62:b8:21:b9:7f:80:26:93:
                    c0:b5:60:65:a1:77:a9:53:b7:fb:a3:27:a2:4d:39:
                    51:1c:8e:4c:ac:39:46:c8:4e:68:23:64:c0:9d:87:
                    8e:06:41:c8:b5:70:55:9f:3f:49:f9:b8:7c:2f:6b:
                    23:81:96:fd:6d:27:f4:41:b5:3a:9b:2e:87:8a:fd:
                    a2:f8:7f:f8:c9:22:ee:f5:52:88:db:f1:67:bc:05:
                    93:1e:31:ba:b6:b1:b7:82:42:ca:3a:48:bc:9e:88:
                    8f:3a:c8:b2:e5:81:69:ff:20:2f:5b:61:d1:03:f6:
                    3e:80:36:7a:46:7a:fb:5f:95:9c:04:15:0e:84:a4:
                    1d:17:12:2c:b9:34:ef:23:30:05:e7:b2:f3:dc:5e:
                    dc:90:d1:3e:b7:c3:c1:b3:91:14:c3:bd:82:00:a5:
                    4b:12:da:3b:ad:8c:21:b9:95:8f:f5:02:a4:13:4b:
                    d1:0f:28:fb:4f:61:e8:60:e0:9e:18:c1:7b:bd:c2:
                    56:34:11:c6:49:06:1e:40:9b:61:57:52:5f:9c:63:
                    bb:c0:ae:00:78:7a:80:10:ee:33:27:3e:e0:49:ab:
                    8b:93
                Exponent: 65537 (0x10001)
        X509v3 extensions:
            X509v3 Subject Alternative Name: 
                DNS:zj.ssltest.com
    Signature Algorithm: sha256WithRSAEncryption
         10:72:53:5e:5d:c8:84:c4:e9:1d:d0:26:aa:49:07:6f:82:ac:
         2e:e4:8f:4f:4a:90:36:59:8b:19:3d:42:a9:52:45:46:a4:8a:
         5e:18:84:f8:e5:3a:13:07:66:2d:d4:d6:85:5a:ae:aa:5d:65:
         da:f6:c8:ef:47:61:b5:de:d8:8a:69:f6:5f:b5:90:09:63:a0:
         af:aa:fe:cd:6a:46:fe:5c:93:d7:0b:f3:2d:8c:b3:3c:b1:ae:
         a7:ad:42:0e:12:cd:68:58:c0:98:43:27:bd:94:f6:c4:27:5a:
         f9:0d:ea:3d:89:d4:1e:65:a4:dc:a5:59:03:ae:54:ed:49:f1:
         4a:84:89:be:26:db:3b:3d:b8:89:a0:90:75:32:03:02:8c:76:
         d9:33:34:e7:91:c3:8e:15:da:e5:25:7c:4f:82:ce:0d:e5:69:
         58:11:b6:c7:e7:16:7e:96:92:03:ec:13:f1:24:f4:ae:6f:fd:
         10:59:1b:6d:a6:9b:b7:28:35:f2:93:dd:19:c6:2f:87:68:77:
         15:b6:2a:4d:5b:f7:a2:2b:e5:18:aa:f9:38:8f:15:9b:da:30:
         ae:52:5b:82:f1:cf:34:61:7d:58:76:a4:c7:e2:4b:18:48:db:
         09:bc:a1:6c:32:6c:f3:f7:aa:17:60:a9:c7:74:84:1c:d7:fb:
         5b:6c:66:b7
-----BEGIN CERTIFICATE-----
MIIC9jCCAd6gAwIBAgIBFDANBgkqhkiG9w0BAQsFADBeMQswCQYDVQQGEwJDTjES
MBAGA1UECAwJR3VhbmdEb25nMRIwEAYDVQQHDAlHdWFuZ3pob3UxDzANBgNVBAoM
BkRldk9wczEWMBQGA1UEAwwNemouY2F0ZXN0LmNvbTAeFw0yMTAxMTYxMDI2NTha
Fw0yMjAxMTYxMDI2NThaMAAwggEiMA0GCSqGSIb3DQEBAQUAA4IBDwAwggEKAoIB
AQDJrVJ5rACbDQssXxhpjJpsRTvJdZsU6NiSHW3ZB7yGyhBuIAliuCG5f4Amk8C1
YGWhd6lTt/ujJ6JNOVEcjkysOUbITmgjZMCdh44GQci1cFWfP0n5uHwvayOBlv1t
J/RBtTqbLoeK/aL4f/jJIu71Uojb8We8BZMeMbq2sbeCQso6SLyeiI86yLLlgWn/
IC9bYdED9j6ANnpGevtflZwEFQ6EpB0XEiy5NO8jMAXnsvPcXtyQ0T63w8GzkRTD
vYIApUsS2jutjCG5lY/1AqQTS9EPKPtPYehg4J4YwXu9wlY0EcZJBh5Am2FXUl+c
Y7vArgB4eoAQ7jMnPuBJq4uTAgMBAAGjHTAbMBkGA1UdEQQSMBCCDnpqLnNzbHRl
c3QuY29tMA0GCSqGSIb3DQEBCwUAA4IBAQAQclNeXciExOkd0CaqSQdvgqwu5I9P
SpA2WYsZPUKpUkVGpIpeGIT45ToTB2Yt1NaFWq6qXWXa9sjvR2G13tiKafZftZAJ
Y6Cvqv7Nakb+XJPXC/MtjLM8sa6nrUIOEs1oWMCYQye9lPbEJ1r5Deo9idQeZaTc
pVkDrlTtSfFKhIm+Jts7PbiJoJB1MgMCjHbZMzTnkcOOFdrlJXxPgs4N5WlYEbbH
5xZ+lpID7BPxJPSub/0QWRttppu3KDXyk90Zxi+HaHcVtipNW/eiK+UYqvk4jxWb
2jCuUluC8c80YX1YdqTH4ksYSNsJvKFsMmzz96oXYKnHdIQc1/tbbGa3
-----END CERTIFICATE-----
